; ModuleID = '51/365.c'
source_filename = "51/365.c"
target datalayout = "e-m:e-p270:32:32-p271:32:32-p272:64:64-i64:64-f80:128-n8:16:32:64-S128"
target triple = "x86_64-pc-linux-gnu"

@.str = private unnamed_addr constant [4 x i8] c"%d\0A\00", align 1
@.str.1 = private unnamed_addr constant [3 x i8] c"NO\00", align 1
@.str.2 = private unnamed_addr constant [4 x i8] c"%s\0A\00", align 1

; Function Attrs: noinline nounwind uwtable
define dso_local i32 @main() #0 {
  %1 = alloca i32, align 4
  %2 = alloca [510 x i8], align 16
  %3 = alloca [10 x i8], align 1
  %4 = alloca [510 x [10 x i8]], align 16
  %5 = alloca [510 x i32], align 16
  %6 = alloca i32, align 4
  %7 = alloca i32, align 4
  %8 = alloca i32, align 4
  %9 = alloca i32, align 4
  %10 = alloca i32, align 4
  %11 = alloca i32, align 4
  store i32 0, i32* %1, align 4
  %12 = bitcast [510 x i8]* %2 to i8*
  call void @llvm.memset.p0i8.i64(i8* align 16 %12, i8 0, i64 510, i1 false)
  %13 = bitcast [10 x i8]* %3 to i8*
  call void @llvm.memset.p0i8.i64(i8* align 1 %13, i8 0, i64 10, i1 false)
  %14 = bitcast [510 x [10 x i8]]* %4 to i8*
  call void @llvm.memset.p0i8.i64(i8* align 16 %14, i8 0, i64 5100, i1 false)
  %15 = bitcast [510 x i32]* %5 to i8*
  call void @llvm.memset.p0i8.i64(i8* align 16 %15, i8 0, i64 2040, i1 false)
  store i32 1, i32* %7, align 4
  store i32 0, i32* %8, align 4
  %16 = call i32 (i8*, ...) @__isoc99_scanf(i8* getelementptr inbounds ([4 x i8], [4 x i8]* @.str, i64 0, i64 0), i32* %6)
  %17 = getelementptr inbounds [510 x i8], [510 x i8]* %2, i64 0, i64 0
  %18 = call i32 (i8*, ...) bitcast (i32 (...)* @gets to i32 (i8*, ...)*)(i8* %17)
  %19 = getelementptr inbounds [510 x i8], [510 x i8]* %2, i64 0, i64 0
  %20 = call i64 @strlen(i8* %19) #5
  %21 = trunc i64 %20 to i32
  store i32 %21, i32* %9, align 4
  store i32 0, i32* %10, align 4
  br label %22

22:                                               ; preds = %100, %0
  %23 = load i32, i32* %10, align 4
  %24 = load i32, i32* %9, align 4
  %25 = add nsw i32 %24, 1
  %26 = load i32, i32* %6, align 4
  %27 = sub nsw i32 %25, %26
  %28 = icmp slt i32 %23, %27
  br i1 %28, label %29, label %103

29:                                               ; preds = %22
  store i32 0, i32* %11, align 4
  br label %30

30:                                               ; preds = %44, %29
  %31 = load i32, i32* %11, align 4
  %32 = load i32, i32* %6, align 4
  %33 = icmp slt i32 %31, %32
  br i1 %33, label %34, label %47

34:                                               ; preds = %30
  %35 = load i32, i32* %10, align 4
  %36 = load i32, i32* %11, align 4
  %37 = add nsw i32 %35, %36
  %38 = sext i32 %37 to i64
  %39 = getelementptr inbounds [510 x i8], [510 x i8]* %2, i64 0, i64 %38
  %40 = load i8, i8* %39, align 1
  %41 = load i32, i32* %11, align 4
  %42 = sext i32 %41 to i64
  %43 = getelementptr inbounds [10 x i8], [10 x i8]* %3, i64 0, i64 %42
  store i8 %40, i8* %43, align 1
  br label %44

44:                                               ; preds = %34
  %45 = load i32, i32* %11, align 4
  %46 = add nsw i32 %45, 1
  store i32 %46, i32* %11, align 4
  br label %30

47:                                               ; preds = %30
  store i32 0, i32* %11, align 4
  br label %48

48:                                               ; preds = %67, %47
  %49 = load i32, i32* %11, align 4
  %50 = load i32, i32* %8, align 4
  %51 = icmp slt i32 %49, %50
  br i1 %51, label %52, label %70

52:                                               ; preds = %48
  %53 = getelementptr inbounds [10 x i8], [10 x i8]* %3, i64 0, i64 0
  %54 = load i32, i32* %11, align 4
  %55 = sext i32 %54 to i64
  %56 = getelementptr inbounds [510 x [10 x i8]], [510 x [10 x i8]]* %4, i64 0, i64 %55
  %57 = getelementptr inbounds [10 x i8], [10 x i8]* %56, i64 0, i64 0
  %58 = call i32 @strcmp(i8* %53, i8* %57) #5
  %59 = icmp eq i32 %58, 0
  br i1 %59, label %60, label %66

60:                                               ; preds = %52
  %61 = load i32, i32* %11, align 4
  %62 = sext i32 %61 to i64
  %63 = getelementptr inbounds [510 x i32], [510 x i32]* %5, i64 0, i64 %62
  %64 = load i32, i32* %63, align 4
  %65 = add nsw i32 %64, 1
  store i32 %65, i32* %63, align 4
  br label %66

66:                                               ; preds = %60, %52
  br label %67

67:                                               ; preds = %66
  %68 = load i32, i32* %11, align 4
  %69 = add nsw i32 %68, 1
  store i32 %69, i32* %11, align 4
  br label %48

70:                                               ; preds = %48
  %71 = load i32, i32* %11, align 4
  %72 = load i32, i32* %8, align 4
  %73 = icmp eq i32 %71, %72
  br i1 %73, label %74, label %88

74:                                               ; preds = %70
  %75 = load i32, i32* %8, align 4
  %76 = sext i32 %75 to i64
  %77 = getelementptr inbounds [510 x [10 x i8]], [510 x [10 x i8]]* %4, i64 0, i64 %76
  %78 = getelementptr inbounds [10 x i8], [10 x i8]* %77, i64 0, i64 0
  %79 = getelementptr inbounds [10 x i8], [10 x i8]* %3, i64 0, i64 0
  %80 = call i8* @strcpy(i8* %78, i8* %79) #6
  %81 = load i32, i32* %8, align 4
  %82 = sext i32 %81 to i64
  %83 = getelementptr inbounds [510 x i32], [510 x i32]* %5, i64 0, i64 %82
  %84 = load i32, i32* %83, align 4
  %85 = add nsw i32 %84, 1
  store i32 %85, i32* %83, align 4
  %86 = load i32, i32* %8, align 4
  %87 = add nsw i32 %86, 1
  store i32 %87, i32* %8, align 4
  br label %88

88:                                               ; preds = %74, %70
  store i32 0, i32* %11, align 4
  br label %89

89:                                               ; preds = %96, %88
  %90 = load i32, i32* %11, align 4
  %91 = icmp slt i32 %90, 10
  br i1 %91, label %92, label %99

92:                                               ; preds = %89
  %93 = load i32, i32* %11, align 4
  %94 = sext i32 %93 to i64
  %95 = getelementptr inbounds [10 x i8], [10 x i8]* %3, i64 0, i64 %94
  store i8 0, i8* %95, align 1
  br label %96

96:                                               ; preds = %92
  %97 = load i32, i32* %11, align 4
  %98 = add nsw i32 %97, 1
  store i32 %98, i32* %11, align 4
  br label %89

99:                                               ; preds = %89
  br label %100

100:                                              ; preds = %99
  %101 = load i32, i32* %10, align 4
  %102 = add nsw i32 %101, 1
  store i32 %102, i32* %10, align 4
  br label %22

103:                                              ; preds = %22
  store i32 0, i32* %10, align 4
  br label %104

104:                                              ; preds = %121, %103
  %105 = load i32, i32* %10, align 4
  %106 = load i32, i32* %8, align 4
  %107 = icmp slt i32 %105, %106
  br i1 %107, label %108, label %124

108:                                              ; preds = %104
  %109 = load i32, i32* %10, align 4
  %110 = sext i32 %109 to i64
  %111 = getelementptr inbounds [510 x i32], [510 x i32]* %5, i64 0, i64 %110
  %112 = load i32, i32* %111, align 4
  %113 = load i32, i32* %7, align 4
  %114 = icmp sgt i32 %112, %113
  br i1 %114, label %115, label %120

115:                                              ; preds = %108
  %116 = load i32, i32* %10, align 4
  %117 = sext i32 %116 to i64
  %118 = getelementptr inbounds [510 x i32], [510 x i32]* %5, i64 0, i64 %117
  %119 = load i32, i32* %118, align 4
  store i32 %119, i32* %7, align 4
  br label %120

120:                                              ; preds = %115, %108
  br label %121

121:                                              ; preds = %120
  %122 = load i32, i32* %10, align 4
  %123 = add nsw i32 %122, 1
  store i32 %123, i32* %10, align 4
  br label %104

124:                                              ; preds = %104
  %125 = load i32, i32* %7, align 4
  %126 = icmp eq i32 %125, 1
  br i1 %126, label %127, label %129

127:                                              ; preds = %124
  %128 = call i32 (i8*, ...) @printf(i8* getelementptr inbounds ([3 x i8], [3 x i8]* @.str.1, i64 0, i64 0))
  br label %154

129:                                              ; preds = %124
  %130 = load i32, i32* %7, align 4
  %131 = call i32 (i8*, ...) @printf(i8* getelementptr inbounds ([4 x i8], [4 x i8]* @.str, i64 0, i64 0), i32 %130)
  store i32 0, i32* %10, align 4
  br label %132

132:                                              ; preds = %150, %129
  %133 = load i32, i32* %10, align 4
  %134 = load i32, i32* %8, align 4
  %135 = icmp slt i32 %133, %134
  br i1 %135, label %136, label %153

136:                                              ; preds = %132
  %137 = load i32, i32* %10, align 4
  %138 = sext i32 %137 to i64
  %139 = getelementptr inbounds [510 x i32], [510 x i32]* %5, i64 0, i64 %138
  %140 = load i32, i32* %139, align 4
  %141 = load i32, i32* %7, align 4
  %142 = icmp eq i32 %140, %141
  br i1 %142, label %143, label %149

143:                                              ; preds = %136
  %144 = load i32, i32* %10, align 4
  %145 = sext i32 %144 to i64
  %146 = getelementptr inbounds [510 x [10 x i8]], [510 x [10 x i8]]* %4, i64 0, i64 %145
  %147 = getelementptr inbounds [10 x i8], [10 x i8]* %146, i64 0, i64 0
  %148 = call i32 (i8*, ...) @printf(i8* getelementptr inbounds ([4 x i8], [4 x i8]* @.str.2, i64 0, i64 0), i8* %147)
  br label %149

149:                                              ; preds = %143, %136
  br label %150

150:                                              ; preds = %149
  %151 = load i32, i32* %10, align 4
  %152 = add nsw i32 %151, 1
  store i32 %152, i32* %10, align 4
  br label %132

153:                                              ; preds = %132
  br label %154

154:                                              ; preds = %153, %127
  %155 = load i32, i32* %1, align 4
  ret i32 %155
}

; Function Attrs: argmemonly nounwind willreturn
declare void @llvm.memset.p0i8.i64(i8* nocapture writeonly, i8, i64, i1 immarg) #1

declare dso_local i32 @__isoc99_scanf(i8*, ...) #2

declare dso_local i32 @gets(...) #2

; Function Attrs: nounwind readonly
declare dso_local i64 @strlen(i8*) #3

; Function Attrs: nounwind readonly
declare dso_local i32 @strcmp(i8*, i8*) #3

; Function Attrs: nounwind
declare dso_local i8* @strcpy(i8*, i8*) #4

declare dso_local i32 @printf(i8*, ...) #2


!llvm.module.flags = !{!0}
!llvm.ident = !{!1}

!0 = !{i32 1, !"wchar_size", i32 4}
!1 = !{!"clang version 10.0.0-4ubuntu1 "}
